; Function Attrs: mustprogress uwtable
define void @_ZNK6icu_776number9Precision12withCurrencyERKNS_12CurrencyUnitER10UErrorCode(ptr dead_on_unwind noalias writable writeonly sret(%"class.icu_77::number::Precision") align 8 captures(none) %0, ptr noundef nonnull readonly align 8 captures(none) dereferenceable(28) %1, ptr noundef nonnull align 8 dereferenceable(28) %2, ptr noundef nonnull align 4 dereferenceable(4) %3) local_unnamed_addr #1 align 2 {
  %5 = load i32, ptr %1, align 8, !tbaa !27
  %6 = icmp eq i32 %5, 9
  br i1 %6, label %7, label %8

7:                                                ; preds = %4
  tail call void @llvm.memcpy.p0.p0.i64(ptr noundef nonnull align 8 dereferenceable(32) %0, ptr noundef nonnull align 8 dereferenceable(32) %1, i64 32, i1 false)
  br label %24

8:                                                ; preds = %4
  %9 = getelementptr inbounds nuw i8, ptr %2, i64 20
  %10 = getelementptr inbounds nuw i8, ptr %1, i64 8
  %11 = load i32, ptr %10, align 8, !tbaa !17
  %12 = tail call double @ucurr_getRoundingIncrementForUsage_77(ptr noundef nonnull %9, i32 noundef %11, ptr noundef nonnull %3)
  %13 = load i32, ptr %10, align 8, !tbaa !17
  %14 = tail call i32 @ucurr_getDefaultFractionDigitsForUsage_77(ptr noundef nonnull %9, i32 noundef %13, ptr noundef nonnull %3)
  %15 = fcmp une double %12, 0.000000e+00
  br i1 %15, label %16, label %_ZN6icu_776number9Precision13fixedFractionEi.exit

16:                                               ; preds = %8
  tail call void @_ZN6icu_776number9Precision9incrementEd(ptr dead_on_unwind nonnull writable sret(%"class.icu_77::number::IncrementPrecision") align 8 %0, double noundef %12)
  br label %20

_ZN6icu_776number9Precision13fixedFractionEi.exit: ; preds = %8
  %or.cond.i = icmp ult i32 %14, 1000
  %.sink.i = select i1 %or.cond.i, i32 2, i32 9
  store i32 %.sink.i, ptr %0, align 8
  %.sroa.48.0..sroa_idx = getelementptr inbounds nuw i8, ptr %0, i64 8
  %17 = shl i32 %14, 16
  %18 = and i32 %14, 65535
  %19 = or disjoint i32 %17, %18
  %.sroa.48.sroa.0.0.insert.insert = select i1 %or.cond.i, i32 %19, i32 65810
  store i32 %.sroa.48.sroa.0.0.insert.insert, ptr %.sroa.48.0..sroa_idx, align 8
  %.sroa.7.0..sroa_idx = getelementptr inbounds nuw i8, ptr %0, i64 12
  store i16 -1, ptr %.sroa.7.0..sroa_idx, align 4
  %.sroa.8.0..sroa_idx = getelementptr inbounds nuw i8, ptr %0, i64 14
  store i16 -1, ptr %.sroa.8.0..sroa_idx, align 2
  %.sroa.9.0..sroa_idx = getelementptr inbounds nuw i8, ptr %0, i64 16
  store i64 0, ptr %.sroa.9.0..sroa_idx, align 8
  br label %20

20:                                               ; preds = %_ZN6icu_776number9Precision13fixedFractionEi.exit, %16
  %21 = getelementptr inbounds nuw i8, ptr %1, i64 24
  %22 = load i32, ptr %21, align 8, !tbaa !31
  %23 = getelementptr inbounds nuw i8, ptr %0, i64 24
  store i32 %22, ptr %23, align 8, !tbaa !31
  br label %24

24:                                               ; preds = %20, %7
  ret void
}